target datalayout = "e-m:e-p270:32:32-p271:32:32-p272:64:64-i64:64-i128:128-f80:128-n8:16:32:64-S128"
target triple = "x86_64-pc-linux-gnu"

%"class.lean::object_ref" = type { ptr }
%"class.lean::scoped_diagnostics" = type { ptr }
%"class.lean::environment" = type { %"class.lean::object_ref" }
%struct.lean_object = type { i32, i32 }

; Function Attrs: inlinehint mustprogress nounwind uwtable
define internal noundef zeroext i1 @_ZL10lean_is_stP11lean_object(ptr noundef %0) #6 {
  %2 = alloca ptr, align 8
  store ptr %0, ptr %2, align 8, !tbaa !24
  %3 = load ptr, ptr %2, align 8, !tbaa !24
  %4 = getelementptr inbounds nuw %struct.lean_object, ptr %3, i32 0, i32 0
  %5 = load i32, ptr %4, align 4, !tbaa !122
  %6 = icmp sgt i32 %5, 0
  ret i1 %6
}

; Function Attrs: inlinehint mustprogress uwtable
define internal void @_ZL12lean_inc_refP11lean_object(ptr noundef %0) #7 {
  %2 = alloca ptr, align 8
  store ptr %0, ptr %2, align 8, !tbaa !24
  %3 = load ptr, ptr %2, align 8, !tbaa !24
  %4 = call noundef zeroext i1 @_ZL10lean_is_stP11lean_object(ptr noundef %3)
  %5 = zext i1 %4 to i64
  %6 = call i64 @llvm.expect.i64(i64 %5, i64 1)
  %7 = icmp ne i64 %6, 0
  br i1 %7, label %8, label %13

8:                                                ; preds = %1
  %9 = load ptr, ptr %2, align 8, !tbaa !24
  %10 = getelementptr inbounds nuw %struct.lean_object, ptr %9, i32 0, i32 0
  %11 = load i32, ptr %10, align 4, !tbaa !122
  %12 = add nsw i32 %11, 1
  store i32 %12, ptr %10, align 4, !tbaa !122
  br label %21

13:                                               ; preds = %1
  %14 = load ptr, ptr %2, align 8, !tbaa !24
  %15 = getelementptr inbounds nuw %struct.lean_object, ptr %14, i32 0, i32 0
  %16 = load i32, ptr %15, align 4, !tbaa !122
  %17 = icmp ne i32 %16, 0
  br i1 %17, label %18, label %20

18:                                               ; preds = %13
  %19 = load ptr, ptr %2, align 8, !tbaa !24
  call void @lean_inc_ref_cold(ptr noundef %19)
  br label %20

20:                                               ; preds = %18, %13
  br label %21

21:                                               ; preds = %20, %8
  ret void
}

; Function Attrs: alwaysinline mustprogress nounwind uwtable
define internal noundef zeroext i1 @_ZL14lean_is_scalarP11lean_object(ptr noundef %0) #10 {
  %2 = alloca ptr, align 8
  store ptr %0, ptr %2, align 8, !tbaa !24
  %3 = load ptr, ptr %2, align 8, !tbaa !24
  %4 = ptrtoint ptr %3 to i64
  %5 = and i64 %4, 1
  %6 = icmp eq i64 %5, 1
  ret i1 %6
}

; Function Attrs: alwaysinline mustprogress uwtable
define internal void @_ZL8lean_incP11lean_object(ptr noundef %0) #9 {
  %2 = alloca ptr, align 8
  store ptr %0, ptr %2, align 8, !tbaa !24
  %3 = load ptr, ptr %2, align 8, !tbaa !24
  %4 = call noundef zeroext i1 @_ZL14lean_is_scalarP11lean_object(ptr noundef %3)
  br i1 %4, label %7, label %5

5:                                                ; preds = %1
  %6 = load ptr, ptr %2, align 8, !tbaa !24
  call void @_ZL12lean_inc_refP11lean_object(ptr noundef %6)
  br label %7

7:                                                ; preds = %5, %1
  ret void
}

; Function Attrs: mustprogress nounwind uwtable
define linkonce_odr hidden void @_ZN4lean10object_refC2EP11lean_object(ptr noundef nonnull align 8 dereferenceable(8) %0, ptr noundef %1) unnamed_addr #5 comdat align 2 {
  %3 = alloca ptr, align 8
  %4 = alloca ptr, align 8
  store ptr %0, ptr %3, align 8, !tbaa !12
  store ptr %1, ptr %4, align 8, !tbaa !24
  %5 = load ptr, ptr %3, align 8
  %6 = getelementptr inbounds nuw %"class.lean::object_ref", ptr %5, i32 0, i32 0
  %7 = load ptr, ptr %4, align 8, !tbaa !24
  store ptr %7, ptr %6, align 8, !tbaa !10
  ret void
}

; Function Attrs: inlinehint mustprogress uwtable
define linkonce_odr hidden void @_ZN4lean3incEP11lean_object(ptr noundef %0) #7 comdat {
  %2 = alloca ptr, align 8
  store ptr %0, ptr %2, align 8, !tbaa !24
  %3 = load ptr, ptr %2, align 8, !tbaa !24
  call void @_ZL8lean_incP11lean_object(ptr noundef %3)
  ret void
}

; Function Attrs: mustprogress uwtable
define linkonce_odr hidden void @_ZN4lean10object_refC2ERKS0_(ptr noundef nonnull align 8 dereferenceable(8) %0, ptr noundef nonnull align 8 dereferenceable(8) %1) unnamed_addr #0 comdat align 2 {
  %3 = alloca ptr, align 8
  %4 = alloca ptr, align 8
  store ptr %0, ptr %3, align 8, !tbaa !12
  store ptr %1, ptr %4, align 8, !tbaa !12
  %5 = load ptr, ptr %3, align 8
  %6 = getelementptr inbounds nuw %"class.lean::object_ref", ptr %5, i32 0, i32 0
  %7 = load ptr, ptr %4, align 8, !tbaa !12
  %8 = getelementptr inbounds nuw %"class.lean::object_ref", ptr %7, i32 0, i32 0
  %9 = load ptr, ptr %8, align 8, !tbaa !10
  store ptr %9, ptr %6, align 8, !tbaa !10
  %10 = getelementptr inbounds nuw %"class.lean::object_ref", ptr %5, i32 0, i32 0
  %11 = load ptr, ptr %10, align 8, !tbaa !10
  call void @_ZN4lean3incEP11lean_object(ptr noundef %11)
  ret void
}

; Function Attrs: mustprogress nounwind uwtable
define linkonce_odr hidden void @_ZN4lean11environmentC2EP11lean_object(ptr noundef nonnull align 8 dereferenceable(8) %0, ptr noundef %1) unnamed_addr #5 comdat align 2 {
  %3 = alloca ptr, align 8
  %4 = alloca ptr, align 8
  store ptr %0, ptr %3, align 8, !tbaa !16
  store ptr %1, ptr %4, align 8, !tbaa !24
  %5 = load ptr, ptr %3, align 8
  %6 = load ptr, ptr %4, align 8, !tbaa !24
  call void @_ZN4lean10object_refC2EP11lean_object(ptr noundef nonnull align 8 dereferenceable(8) %5, ptr noundef %6)
  ret void
}

; Function Attrs: mustprogress uwtable
define linkonce_odr hidden noundef ptr @_ZNK4lean10object_ref10to_obj_argEv(ptr noundef nonnull align 8 dereferenceable(8) %0) #0 comdat align 2 {
  %2 = alloca ptr, align 8
  store ptr %0, ptr %2, align 8, !tbaa !12
  %3 = load ptr, ptr %2, align 8
  %4 = getelementptr inbounds nuw %"class.lean::object_ref", ptr %3, i32 0, i32 0
  %5 = load ptr, ptr %4, align 8, !tbaa !10
  call void @_ZN4lean3incEP11lean_object(ptr noundef %5)
  %6 = getelementptr inbounds nuw %"class.lean::object_ref", ptr %3, i32 0, i32 0
  %7 = load ptr, ptr %6, align 8, !tbaa !10
  ret ptr %7
}

; Function Attrs: mustprogress uwtable
define linkonce_odr hidden void @_ZN4lean11environmentC2ERKS0_(ptr noundef nonnull align 8 dereferenceable(8) %0, ptr noundef nonnull align 8 dereferenceable(8) %1) unnamed_addr #0 comdat align 2 {
  %3 = alloca ptr, align 8
  %4 = alloca ptr, align 8
  store ptr %0, ptr %3, align 8, !tbaa !16
  store ptr %1, ptr %4, align 8, !tbaa !16
  %5 = load ptr, ptr %3, align 8
  %6 = load ptr, ptr %4, align 8, !tbaa !16
  call void @_ZN4lean10object_refC2ERKS0_(ptr noundef nonnull align 8 dereferenceable(8) %5, ptr noundef nonnull align 8 dereferenceable(8) %6)
  ret void
}

; Function Attrs: mustprogress uwtable
define void @_ZNK4lean11environment8set_diagERKNS_11diagnosticsE(ptr dead_on_unwind noalias writable sret(%"class.lean::environment") align 8 %0, ptr noundef nonnull align 8 dereferenceable(8) %1, ptr noundef nonnull align 8 dereferenceable(8) %2) #0 align 2 {
  %4 = alloca ptr, align 8
  %5 = alloca ptr, align 8
  %6 = alloca ptr, align 8
  store ptr %0, ptr %4, align 8
  store ptr %1, ptr %5, align 8, !tbaa !16
  store ptr %2, ptr %6, align 8, !tbaa !3
  %7 = load ptr, ptr %5, align 8
  %8 = call noundef ptr @_ZNK4lean10object_ref10to_obj_argEv(ptr noundef nonnull align 8 dereferenceable(8) %7)
  %9 = load ptr, ptr %6, align 8, !tbaa !3
  %10 = call noundef ptr @_ZNK4lean10object_ref10to_obj_argEv(ptr noundef nonnull align 8 dereferenceable(8) %9)
  %11 = call ptr @lean_kernel_set_diag(ptr noundef %8, ptr noundef %10)
  call void @_ZN4lean11environmentC2EP11lean_object(ptr noundef nonnull align 8 dereferenceable(8) %0, ptr noundef %11)
  ret void
}

; Function Attrs: mustprogress uwtable
define hidden void @_ZNK4lean18scoped_diagnostics6updateERKNS_11environmentE(ptr dead_on_unwind noalias writable sret(%"class.lean::environment") align 8 %0, ptr noundef nonnull align 8 dereferenceable(8) %1, ptr noundef nonnull align 8 dereferenceable(8) %2) #0 align 2 {
  %4 = alloca ptr, align 8
  %5 = alloca ptr, align 8
  %6 = alloca ptr, align 8
  store ptr %0, ptr %4, align 8
  store ptr %1, ptr %5, align 8, !tbaa !14
  store ptr %2, ptr %6, align 8, !tbaa !16
  %7 = load ptr, ptr %5, align 8
  %8 = getelementptr inbounds nuw %"class.lean::scoped_diagnostics", ptr %7, i32 0, i32 0
  %9 = load ptr, ptr %8, align 8, !tbaa !22
  %10 = icmp ne ptr %9, null
  br i1 %10, label %11, label %15

11:                                               ; preds = %3
  %12 = load ptr, ptr %6, align 8, !tbaa !16
  %13 = getelementptr inbounds nuw %"class.lean::scoped_diagnostics", ptr %7, i32 0, i32 0
  %14 = load ptr, ptr %13, align 8, !tbaa !22
  call void @_ZNK4lean11environment8set_diagERKNS_11diagnosticsE(ptr dead_on_unwind writable sret(%"class.lean::environment") align 8 %0, ptr noundef nonnull align 8 dereferenceable(8) %12, ptr noundef nonnull align 8 dereferenceable(8) %14)
  br label %17

15:                                               ; preds = %3
  %16 = load ptr, ptr %6, align 8, !tbaa !16
  call void @_ZN4lean11environmentC2ERKS0_(ptr noundef nonnull align 8 dereferenceable(8) %0, ptr noundef nonnull align 8 dereferenceable(8) %16)
  br label %17

17:                                               ; preds = %15, %11
  ret void
}