; Function Attrs: mustprogress uwtable
define hidden void @_ZNK4lean18scoped_diagnostics6updateERKNS_11environmentE(ptr dead_on_unwind noalias writable writeonly sret(%"class.lean::environment") align 8 captures(none) initializes((0, 8)) %0, ptr noundef nonnull readonly align 8 captures(none) dereferenceable(8) %1, ptr noundef nonnull readonly align 8 captures(none) dereferenceable(8) %2) local_unnamed_addr #0 align 2 {
  %4 = load ptr, ptr %1, align 8, !tbaa !15
  %.not = icmp eq ptr %4, null
  br i1 %.not, label %27, label %5

5:                                                ; preds = %3
  tail call void @llvm.experimental.noalias.scope.decl(metadata !18)
  %6 = load ptr, ptr %2, align 8, !tbaa !3, !noalias !18
  %7 = ptrtoint ptr %6 to i64
  %8 = and i64 %7, 1
  %.not.i.i.i = icmp eq i64 %8, 0
  br i1 %.not.i.i.i, label %9, label %_ZNK4lean10object_ref10to_obj_argEv.exit.i

9:                                                ; preds = %5
  %.val.i.i.i.i = load i32, ptr %6, align 4, !tbaa !8, !noalias !18
  %10 = icmp sgt i32 %.val.i.i.i.i, 0
  br i1 %10, label %11, label %13, !prof !11

11:                                               ; preds = %9
  %12 = add nuw nsw i32 %.val.i.i.i.i, 1
  store i32 %12, ptr %6, align 4, !tbaa !8, !noalias !18
  br label %_ZNK4lean10object_ref10to_obj_argEv.exit.i

13:                                               ; preds = %9
  %.not.i.i.i.i = icmp eq i32 %.val.i.i.i.i, 0
  br i1 %.not.i.i.i.i, label %_ZNK4lean10object_ref10to_obj_argEv.exit.i, label %14

14:                                               ; preds = %13
  tail call void @lean_inc_ref_cold(ptr noundef nonnull %6), !noalias !18
  %.pre.i.i = load ptr, ptr %2, align 8, !tbaa !3, !noalias !18
  br label %_ZNK4lean10object_ref10to_obj_argEv.exit.i

_ZNK4lean10object_ref10to_obj_argEv.exit.i:       ; preds = %14, %13, %11, %5
  %15 = phi ptr [ %6, %5 ], [ %6, %11 ], [ %6, %13 ], [ %.pre.i.i, %14 ]
  %16 = load ptr, ptr %4, align 8, !tbaa !3, !noalias !18
  %17 = ptrtoint ptr %16 to i64
  %18 = and i64 %17, 1
  %.not.i.i2.i = icmp eq i64 %18, 0
  br i1 %.not.i.i2.i, label %19, label %_ZNK4lean11environment8set_diagERKNS_11diagnosticsE.exit

19:                                               ; preds = %_ZNK4lean10object_ref10to_obj_argEv.exit.i
  %.val.i.i.i3.i = load i32, ptr %16, align 4, !tbaa !8, !noalias !18
  %20 = icmp sgt i32 %.val.i.i.i3.i, 0
  br i1 %20, label %21, label %23, !prof !11

21:                                               ; preds = %19
  %22 = add nuw nsw i32 %.val.i.i.i3.i, 1
  store i32 %22, ptr %16, align 4, !tbaa !8, !noalias !18
  br label %_ZNK4lean11environment8set_diagERKNS_11diagnosticsE.exit

23:                                               ; preds = %19
  %.not.i.i.i4.i = icmp eq i32 %.val.i.i.i3.i, 0
  br i1 %.not.i.i.i4.i, label %_ZNK4lean11environment8set_diagERKNS_11diagnosticsE.exit, label %24

24:                                               ; preds = %23
  tail call void @lean_inc_ref_cold(ptr noundef nonnull %16), !noalias !18
  %.pre.i5.i = load ptr, ptr %4, align 8, !tbaa !3, !noalias !18
  br label %_ZNK4lean11environment8set_diagERKNS_11diagnosticsE.exit

_ZNK4lean11environment8set_diagERKNS_11diagnosticsE.exit: ; preds = %_ZNK4lean10object_ref10to_obj_argEv.exit.i, %21, %23, %24
  %25 = phi ptr [ %16, %_ZNK4lean10object_ref10to_obj_argEv.exit.i ], [ %16, %21 ], [ %16, %23 ], [ %.pre.i5.i, %24 ]
  %26 = tail call ptr @lean_kernel_set_diag(ptr noundef %15, ptr noundef %25), !noalias !18
  store ptr %26, ptr %0, align 8, !tbaa !3, !alias.scope !18
  br label %_ZN4lean11environmentC2ERKS0_.exit

27:                                               ; preds = %3
  %28 = load ptr, ptr %2, align 8, !tbaa !3
  store ptr %28, ptr %0, align 8, !tbaa !3
  %29 = ptrtoint ptr %28 to i64
  %30 = and i64 %29, 1
  %.not.i.i.i3 = icmp eq i64 %30, 0
  br i1 %.not.i.i.i3, label %31, label %_ZN4lean11environmentC2ERKS0_.exit

31:                                               ; preds = %27
  %.val.i.i.i.i4 = load i32, ptr %28, align 4, !tbaa !8
  %32 = icmp sgt i32 %.val.i.i.i.i4, 0
  br i1 %32, label %33, label %35, !prof !11

33:                                               ; preds = %31
  %34 = add nuw nsw i32 %.val.i.i.i.i4, 1
  store i32 %34, ptr %28, align 4, !tbaa !8
  br label %_ZN4lean11environmentC2ERKS0_.exit

35:                                               ; preds = %31
  %.not.i.i.i.i5 = icmp eq i32 %.val.i.i.i.i4, 0
  br i1 %.not.i.i.i.i5, label %_ZN4lean11environmentC2ERKS0_.exit, label %36

36:                                               ; preds = %35
  tail call void @lean_inc_ref_cold(ptr noundef nonnull %28)
  br label %_ZN4lean11environmentC2ERKS0_.exit

_ZN4lean11environmentC2ERKS0_.exit:               ; preds = %36, %35, %33, %27, %_ZNK4lean11environment8set_diagERKNS_11diagnosticsE.exit
  ret void
}